target datalayout = "e-m:e-p270:32:32-p271:32:32-p272:64:64-i64:64-i128:128-f80:128-n8:16:32:64-S128"
target triple = "x86_64-pc-linux-gnu"

; Function Attrs: nounwind uwtable
define void @Aig_RManSortNums(ptr noundef %0, i32 noundef %1) #0 {
  %3 = alloca ptr, align 8
  %4 = alloca i32, align 4
  %5 = alloca i32, align 4
  %6 = alloca i32, align 4
  %7 = alloca i32, align 4
  %8 = alloca i32, align 4
  store ptr %0, ptr %3, align 8, !tbaa !29
  store i32 %1, ptr %4, align 4, !tbaa !25
  call void @llvm.lifetime.start.p0(i64 4, ptr %5) #10
  call void @llvm.lifetime.start.p0(i64 4, ptr %6) #10
  call void @llvm.lifetime.start.p0(i64 4, ptr %7) #10
  call void @llvm.lifetime.start.p0(i64 4, ptr %8) #10
  store i32 0, ptr %5, align 4, !tbaa !25
  br label %9

9:                                                ; preds = %60, %2
  %10 = load i32, ptr %5, align 4, !tbaa !25
  %11 = load i32, ptr %4, align 4, !tbaa !25
  %12 = sub nsw i32 %11, 1
  %13 = icmp slt i32 %10, %12
  br i1 %13, label %14, label %63

14:                                               ; preds = %9
  %15 = load i32, ptr %5, align 4, !tbaa !25
  store i32 %15, ptr %7, align 4, !tbaa !25
  %16 = load i32, ptr %5, align 4, !tbaa !25
  %17 = add nsw i32 %16, 1
  store i32 %17, ptr %6, align 4, !tbaa !25
  br label %18

18:                                               ; preds = %37, %14
  %19 = load i32, ptr %6, align 4, !tbaa !25
  %20 = load i32, ptr %4, align 4, !tbaa !25
  %21 = icmp slt i32 %19, %20
  br i1 %21, label %22, label %40

22:                                               ; preds = %18
  %23 = load ptr, ptr %3, align 8, !tbaa !29
  %24 = load i32, ptr %6, align 4, !tbaa !25
  %25 = sext i32 %24 to i64
  %26 = getelementptr inbounds i32, ptr %23, i64 %25
  %27 = load i32, ptr %26, align 4, !tbaa !25
  %28 = load ptr, ptr %3, align 8, !tbaa !29
  %29 = load i32, ptr %7, align 4, !tbaa !25
  %30 = sext i32 %29 to i64
  %31 = getelementptr inbounds i32, ptr %28, i64 %30
  %32 = load i32, ptr %31, align 4, !tbaa !25
  %33 = icmp sgt i32 %27, %32
  br i1 %33, label %34, label %36

34:                                               ; preds = %22
  %35 = load i32, ptr %6, align 4, !tbaa !25
  store i32 %35, ptr %7, align 4, !tbaa !25
  br label %36

36:                                               ; preds = %34, %22
  br label %37

37:                                               ; preds = %36
  %38 = load i32, ptr %6, align 4, !tbaa !25
  %39 = add nsw i32 %38, 1
  store i32 %39, ptr %6, align 4, !tbaa !25
  br label %18, !llvm.loop !52

40:                                               ; preds = %18
  %41 = load ptr, ptr %3, align 8, !tbaa !29
  %42 = load i32, ptr %5, align 4, !tbaa !25
  %43 = sext i32 %42 to i64
  %44 = getelementptr inbounds i32, ptr %41, i64 %43
  %45 = load i32, ptr %44, align 4, !tbaa !25
  store i32 %45, ptr %8, align 4, !tbaa !25
  %46 = load ptr, ptr %3, align 8, !tbaa !29
  %47 = load i32, ptr %7, align 4, !tbaa !25
  %48 = sext i32 %47 to i64
  %49 = getelementptr inbounds i32, ptr %46, i64 %48
  %50 = load i32, ptr %49, align 4, !tbaa !25
  %51 = load ptr, ptr %3, align 8, !tbaa !29
  %52 = load i32, ptr %5, align 4, !tbaa !25
  %53 = sext i32 %52 to i64
  %54 = getelementptr inbounds i32, ptr %51, i64 %53
  store i32 %50, ptr %54, align 4, !tbaa !25
  %55 = load i32, ptr %8, align 4, !tbaa !25
  %56 = load ptr, ptr %3, align 8, !tbaa !29
  %57 = load i32, ptr %7, align 4, !tbaa !25
  %58 = sext i32 %57 to i64
  %59 = getelementptr inbounds i32, ptr %56, i64 %58
  store i32 %55, ptr %59, align 4, !tbaa !25
  br label %60

60:                                               ; preds = %40
  %61 = load i32, ptr %5, align 4, !tbaa !25
  %62 = add nsw i32 %61, 1
  store i32 %62, ptr %5, align 4, !tbaa !25
  br label %9, !llvm.loop !53

63:                                               ; preds = %9
  call void @llvm.lifetime.end.p0(i64 4, ptr %8) #10
  call void @llvm.lifetime.end.p0(i64 4, ptr %7) #10
  call void @llvm.lifetime.end.p0(i64 4, ptr %6) #10
  call void @llvm.lifetime.end.p0(i64 4, ptr %5) #10
  ret void
}