; Function Attrs: nofree norecurse nosync nounwind memory(argmem: readwrite) uwtable
define void @Aig_RManSortNums(ptr noundef captures(none) %0, i32 noundef %1) local_unnamed_addr #8 {
  %3 = icmp sgt i32 %1, 1
  br i1 %3, label %.lr.ph27.preheader, label %._crit_edge28

.lr.ph27.preheader:                               ; preds = %2
  %4 = add nsw i32 %1, -1
  %wide.trip.count35 = zext nneg i32 %4 to i64
  %wide.trip.count = zext nneg i32 %1 to i64
  br label %.lr.ph.preheader

.lr.ph.preheader:                                 ; preds = %._crit_edge, %.lr.ph27.preheader
  %indvars.iv32 = phi i64 [ 0, %.lr.ph27.preheader ], [ %indvars.iv.next33, %._crit_edge ]
  %indvars.iv = phi i64 [ 1, %.lr.ph27.preheader ], [ %indvars.iv.next, %._crit_edge ]
  %indvars.iv.next33 = add nuw nsw i64 %indvars.iv32, 1
  %5 = trunc nuw nsw i64 %indvars.iv32 to i32
  br label %.lr.ph

.lr.ph:                                           ; preds = %.lr.ph.preheader, %.lr.ph
  %indvars.iv29 = phi i64 [ %indvars.iv, %.lr.ph.preheader ], [ %indvars.iv.next30, %.lr.ph ]
  %.02124 = phi i32 [ %5, %.lr.ph.preheader ], [ %spec.select, %.lr.ph ]
  %6 = getelementptr inbounds nuw i32, ptr %0, i64 %indvars.iv29
  %7 = load i32, ptr %6, align 4, !tbaa !24
  %8 = sext i32 %.02124 to i64
  %9 = getelementptr inbounds i32, ptr %0, i64 %8
  %10 = load i32, ptr %9, align 4, !tbaa !24
  %11 = icmp sgt i32 %7, %10
  %12 = trunc nuw nsw i64 %indvars.iv29 to i32
  %spec.select = select i1 %11, i32 %12, i32 %.02124
  %indvars.iv.next30 = add nuw nsw i64 %indvars.iv29, 1
  %exitcond.not = icmp eq i64 %indvars.iv.next30, %wide.trip.count
  br i1 %exitcond.not, label %._crit_edge, label %.lr.ph, !llvm.loop !45

._crit_edge:                                      ; preds = %.lr.ph
  %13 = getelementptr inbounds nuw i32, ptr %0, i64 %indvars.iv32
  %14 = load i32, ptr %13, align 4, !tbaa !24
  %15 = sext i32 %spec.select to i64
  %16 = getelementptr inbounds i32, ptr %0, i64 %15
  %17 = load i32, ptr %16, align 4, !tbaa !24
  store i32 %17, ptr %13, align 4, !tbaa !24
  store i32 %14, ptr %16, align 4, !tbaa !24
  %indvars.iv.next = add nuw nsw i64 %indvars.iv, 1
  %exitcond36.not = icmp eq i64 %indvars.iv.next33, %wide.trip.count35
  br i1 %exitcond36.not, label %._crit_edge28, label %.lr.ph.preheader, !llvm.loop !46

._crit_edge28:                                    ; preds = %._crit_edge, %2
  ret void
}